; Function Attrs: nounwind uwtable
define ptr @l_Lean_ParseImports_main(ptr noundef %0, ptr noundef %1) local_unnamed_addr #0 {
  %3 = getelementptr inbounds nuw i8, ptr %1, i64 16
  %4 = load ptr, ptr %3, align 8, !tbaa !10
  %5 = ptrtoint ptr %4 to i64
  %6 = and i64 %5, 1
  %.not = icmp eq i64 %6, 0
  br i1 %.not, label %7, label %lean_inc.exit33

7:                                                ; preds = %2
  %.val.i = load i32, ptr %4, align 4, !tbaa !4
  %8 = icmp sgt i32 %.val.i, 0
  br i1 %8, label %9, label %11, !prof !9

9:                                                ; preds = %7
  %10 = add nuw i32 %.val.i, 1
  store i32 %10, ptr %4, align 4, !tbaa !4
  br label %lean_inc.exit33

11:                                               ; preds = %7
  %.not.i43 = icmp eq i32 %.val.i, 0
  br i1 %.not.i43, label %lean_inc.exit33, label %12

12:                                               ; preds = %11
  tail call void @lean_inc_ref_cold(ptr noundef nonnull %4) #6
  br label %lean_inc.exit33

lean_inc.exit33:                                  ; preds = %12, %11, %9, %2
  %13 = load ptr, ptr @l_Lean_ParseImports_main___closed__1, align 8, !tbaa !10
  %14 = tail call ptr @l_Lean_ParseImports_keywordCore_go___at_Lean_ParseImports_main___spec__1(ptr noundef %13, ptr noundef %0, ptr noundef nonnull %1, ptr noundef nonnull inttoptr (i64 1 to ptr), ptr noundef %4)
  %15 = getelementptr inbounds nuw i8, ptr %14, i64 24
  %16 = load ptr, ptr %15, align 8, !tbaa !10
  %17 = ptrtoint ptr %16 to i64
  %18 = and i64 %17, 1
  %.not64 = icmp eq i64 %18, 0
  br i1 %.not64, label %19, label %lean_obj_tag.exit

19:                                               ; preds = %lean_inc.exit33
  %.val.i44 = load i32, ptr %16, align 4, !tbaa !4
  %20 = icmp sgt i32 %.val.i44, 0
  br i1 %20, label %21, label %23, !prof !9

21:                                               ; preds = %19
  %22 = add nuw i32 %.val.i44, 1
  store i32 %22, ptr %16, align 4, !tbaa !4
  br label %lean_obj_tag.exit.thread

23:                                               ; preds = %19
  %.not.i45 = icmp eq i32 %.val.i44, 0
  br i1 %.not.i45, label %lean_obj_tag.exit.thread, label %24

24:                                               ; preds = %23
  tail call void @lean_inc_ref_cold(ptr noundef nonnull %16) #6
  br label %lean_obj_tag.exit.thread

lean_obj_tag.exit:                                ; preds = %lean_inc.exit33
  %25 = and i64 %17, 8589934590
  %26 = icmp eq i64 %25, 0
  br i1 %26, label %29, label %lean_dec.exit34

lean_obj_tag.exit.thread:                         ; preds = %21, %23, %24
  %27 = getelementptr i8, ptr %16, i64 4
  %.val.i48 = load i32, ptr %27, align 4
  %28 = icmp ult i32 %.val.i48, 16777216
  br i1 %28, label %29, label %.thread63

29:                                               ; preds = %lean_obj_tag.exit.thread, %lean_obj_tag.exit
  %30 = getelementptr inbounds nuw i8, ptr %14, i64 16
  %31 = load ptr, ptr %30, align 8, !tbaa !10
  %32 = ptrtoint ptr %31 to i64
  %33 = and i64 %32, 1
  %.not66 = icmp eq i64 %33, 0
  br i1 %.not66, label %34, label %lean_inc.exit31

34:                                               ; preds = %29
  %.val.i49 = load i32, ptr %31, align 4, !tbaa !4
  %35 = icmp sgt i32 %.val.i49, 0
  br i1 %35, label %36, label %38, !prof !9

36:                                               ; preds = %34
  %37 = add nuw i32 %.val.i49, 1
  store i32 %37, ptr %31, align 4, !tbaa !4
  br label %lean_inc.exit31

38:                                               ; preds = %34
  %.not.i50 = icmp eq i32 %.val.i49, 0
  br i1 %.not.i50, label %lean_inc.exit31, label %39

39:                                               ; preds = %38
  tail call void @lean_inc_ref_cold(ptr noundef nonnull %31) #6
  br label %lean_inc.exit31

lean_inc.exit31:                                  ; preds = %39, %38, %36, %29
  %40 = load ptr, ptr @l_Lean_ParseImports_main___closed__2, align 8, !tbaa !10
  %41 = tail call ptr @l_Lean_ParseImports_keywordCore_go___at_Lean_ParseImports_main___spec__2(ptr noundef %40, ptr noundef %0, ptr noundef nonnull %14, ptr noundef nonnull inttoptr (i64 1 to ptr), ptr noundef %31)
  %42 = getelementptr inbounds nuw i8, ptr %41, i64 24
  %43 = load ptr, ptr %42, align 8, !tbaa !10
  %44 = ptrtoint ptr %43 to i64
  %45 = and i64 %44, 1
  %.not67 = icmp eq i64 %45, 0
  br i1 %.not67, label %46, label %lean_obj_tag.exit58

46:                                               ; preds = %lean_inc.exit31
  %.val.i52 = load i32, ptr %43, align 4, !tbaa !4
  %47 = icmp sgt i32 %.val.i52, 0
  br i1 %47, label %48, label %50, !prof !9

48:                                               ; preds = %46
  %49 = add nuw i32 %.val.i52, 1
  store i32 %49, ptr %43, align 4, !tbaa !4
  br label %lean_obj_tag.exit58.thread

50:                                               ; preds = %46
  %.not.i53 = icmp eq i32 %.val.i52, 0
  br i1 %.not.i53, label %lean_obj_tag.exit58.thread, label %51

51:                                               ; preds = %50
  tail call void @lean_inc_ref_cold(ptr noundef nonnull %43) #6
  br label %lean_obj_tag.exit58.thread

lean_obj_tag.exit58:                              ; preds = %lean_inc.exit31
  %52 = and i64 %44, 8589934590
  %53 = icmp eq i64 %52, 0
  br i1 %53, label %56, label %lean_dec.exit36

lean_obj_tag.exit58.thread:                       ; preds = %48, %50, %51
  %54 = getelementptr i8, ptr %43, i64 4
  %.val.i57 = load i32, ptr %54, align 4
  %55 = icmp ult i32 %.val.i57, 16777216
  br i1 %55, label %56, label %.thread

56:                                               ; preds = %lean_obj_tag.exit58.thread, %lean_obj_tag.exit58
  %57 = tail call ptr @l_Lean_ParseImports_many___at_Lean_ParseImports_main___spec__6(ptr noundef nonnull inttoptr (i64 1 to ptr), ptr noundef %0, ptr noundef nonnull %41)
  br label %lean_dec.exit35

.thread:                                          ; preds = %lean_obj_tag.exit58.thread
  %58 = load i32, ptr %43, align 4, !tbaa !4
  %59 = icmp sgt i32 %58, 1
  br i1 %59, label %60, label %62, !prof !9

60:                                               ; preds = %.thread
  %61 = add nsw i32 %58, -1
  store i32 %61, ptr %43, align 4, !tbaa !4
  br label %lean_dec.exit36

62:                                               ; preds = %.thread
  %.not.i = icmp eq i32 %58, 0
  br i1 %.not.i, label %lean_dec.exit36, label %63

63:                                               ; preds = %62
  tail call void @lean_dec_ref_cold(ptr noundef nonnull %43) #6
  br label %lean_dec.exit36

lean_dec.exit36:                                  ; preds = %lean_obj_tag.exit58, %63, %62, %60
  %64 = ptrtoint ptr %0 to i64
  %65 = and i64 %64, 1
  %.not68 = icmp eq i64 %65, 0
  br i1 %.not68, label %66, label %lean_dec.exit35

66:                                               ; preds = %lean_dec.exit36
  %67 = load i32, ptr %0, align 4, !tbaa !4
  %68 = icmp sgt i32 %67, 1
  br i1 %68, label %69, label %71, !prof !9

69:                                               ; preds = %66
  %70 = add nsw i32 %67, -1
  store i32 %70, ptr %0, align 4, !tbaa !4
  br label %lean_dec.exit35

71:                                               ; preds = %66
  %.not.i37 = icmp eq i32 %67, 0
  br i1 %.not.i37, label %lean_dec.exit35, label %72

72:                                               ; preds = %71
  tail call void @lean_dec_ref_cold(ptr noundef nonnull %0) #6
  br label %lean_dec.exit35

.thread63:                                        ; preds = %lean_obj_tag.exit.thread
  %73 = load i32, ptr %16, align 4, !tbaa !4
  %74 = icmp sgt i32 %73, 1
  br i1 %74, label %75, label %77, !prof !9

75:                                               ; preds = %.thread63
  %76 = add nsw i32 %73, -1
  store i32 %76, ptr %16, align 4, !tbaa !4
  br label %lean_dec.exit34

77:                                               ; preds = %.thread63
  %.not.i39 = icmp eq i32 %73, 0
  br i1 %.not.i39, label %lean_dec.exit34, label %78

78:                                               ; preds = %77
  tail call void @lean_dec_ref_cold(ptr noundef nonnull %16) #6
  br label %lean_dec.exit34

lean_dec.exit34:                                  ; preds = %lean_obj_tag.exit, %78, %77, %75
  %79 = ptrtoint ptr %0 to i64
  %80 = and i64 %79, 1
  %.not65 = icmp eq i64 %80, 0
  br i1 %.not65, label %81, label %lean_dec.exit35

81:                                               ; preds = %lean_dec.exit34
  %82 = load i32, ptr %0, align 4, !tbaa !4
  %83 = icmp sgt i32 %82, 1
  br i1 %83, label %84, label %86, !prof !9

84:                                               ; preds = %81
  %85 = add nsw i32 %82, -1
  store i32 %85, ptr %0, align 4, !tbaa !4
  br label %lean_dec.exit35

86:                                               ; preds = %81
  %.not.i41 = icmp eq i32 %82, 0
  br i1 %.not.i41, label %lean_dec.exit35, label %87

87:                                               ; preds = %86
  tail call void @lean_dec_ref_cold(ptr noundef nonnull %0) #6
  br label %lean_dec.exit35

lean_dec.exit35:                                  ; preds = %lean_dec.exit34, %84, %86, %87, %lean_dec.exit36, %69, %71, %72, %56
  %.1 = phi ptr [ %57, %56 ], [ %41, %72 ], [ %41, %71 ], [ %41, %69 ], [ %41, %lean_dec.exit36 ], [ %14, %87 ], [ %14, %86 ], [ %14, %84 ], [ %14, %lean_dec.exit34 ]
  ret ptr %.1
}